; Function Attrs: mustprogress uwtable
define void @_ZN6icu_7515AlphabeticIndexC2ERKNS_6LocaleER10UErrorCode(ptr noundef nonnull align 8 dereferenceable(400) %this, ptr noundef nonnull align 8 dereferenceable(217) %locale, ptr noundef nonnull align 4 dereferenceable(4) %status) unnamed_addr #3 align 2 personality ptr @__gxx_personality_v0 {
invoke.cont9:
  store ptr getelementptr inbounds ({ [33 x ptr] }, ptr @_ZTVN6icu_7515AlphabeticIndexE, i64 0, i32 0, i64 2), ptr %this, align 8
  %inputList_ = getelementptr inbounds i8, ptr %this, i64 8
  store ptr null, ptr %inputList_, align 8
  %labelsIterIndex_ = getelementptr inbounds i8, ptr %this, i64 16
  store i32 -1, ptr %labelsIterIndex_, align 8
  %itemsIterIndex_ = getelementptr inbounds i8, ptr %this, i64 20
  store i32 0, ptr %itemsIterIndex_, align 4
  %currentBucket_ = getelementptr inbounds i8, ptr %this, i64 24
  store ptr null, ptr %currentBucket_, align 8
  %maxLabelCount_ = getelementptr inbounds i8, ptr %this, i64 32
  store i32 99, ptr %maxLabelCount_, align 8
  %initialLabels_ = getelementptr inbounds i8, ptr %this, i64 40
  %inflowLabel_ = getelementptr inbounds i8, ptr %this, i64 80
  tail call void @llvm.memset.p0.i64(ptr noundef nonnull align 8 dereferenceable(40) %initialLabels_, i8 0, i64 40, i1 false)
  store ptr getelementptr inbounds ({ [13 x ptr] }, ptr @_ZTVN6icu_7513UnicodeStringE, i64 0, i32 0, i64 2), ptr %inflowLabel_, align 8
  %fUnion2.i = getelementptr inbounds i8, ptr %this, i64 88
  store i16 2, ptr %fUnion2.i, align 8
  %overflowLabel_ = getelementptr inbounds i8, ptr %this, i64 144
  store ptr getelementptr inbounds ({ [13 x ptr] }, ptr @_ZTVN6icu_7513UnicodeStringE, i64 0, i32 0, i64 2), ptr %overflowLabel_, align 8
  %fUnion2.i6 = getelementptr inbounds i8, ptr %this, i64 152
  store i16 2, ptr %fUnion2.i6, align 8
  %underflowLabel_ = getelementptr inbounds i8, ptr %this, i64 208
  store ptr getelementptr inbounds ({ [13 x ptr] }, ptr @_ZTVN6icu_7513UnicodeStringE, i64 0, i32 0, i64 2), ptr %underflowLabel_, align 8
  %fUnion2.i7 = getelementptr inbounds i8, ptr %this, i64 216
  store i16 2, ptr %fUnion2.i7, align 8
  %overflowComparisonString_ = getelementptr inbounds i8, ptr %this, i64 272
  store ptr getelementptr inbounds ({ [13 x ptr] }, ptr @_ZTVN6icu_7513UnicodeStringE, i64 0, i32 0, i64 2), ptr %overflowComparisonString_, align 8
  %fUnion2.i8 = getelementptr inbounds i8, ptr %this, i64 280
  store i16 2, ptr %fUnion2.i8, align 8
  %emptyString_ = getelementptr inbounds i8, ptr %this, i64 336
  store ptr getelementptr inbounds ({ [13 x ptr] }, ptr @_ZTVN6icu_7513UnicodeStringE, i64 0, i32 0, i64 2), ptr %emptyString_, align 8
  %fUnion2.i9 = getelementptr inbounds i8, ptr %this, i64 344
  store i16 2, ptr %fUnion2.i9, align 8
  invoke void @_ZN6icu_7515AlphabeticIndex4initEPKNS_6LocaleER10UErrorCode(ptr noundef nonnull align 8 dereferenceable(400) %this, ptr noundef nonnull %locale, ptr noundef nonnull align 4 dereferenceable(4) %status)
          to label %invoke.cont11 unwind label %lpad10

invoke.cont11:                                    ; preds = %invoke.cont9
  ret void

lpad10:                                           ; preds = %invoke.cont9
  %0 = landingpad { ptr, i32 }
          cleanup
  tail call void @_ZN6icu_7513UnicodeStringD1Ev(ptr noundef nonnull align 8 dereferenceable(64) %emptyString_) #16
  tail call void @_ZN6icu_7513UnicodeStringD1Ev(ptr noundef nonnull align 8 dereferenceable(64) %overflowComparisonString_) #16
  tail call void @_ZN6icu_7513UnicodeStringD1Ev(ptr noundef nonnull align 8 dereferenceable(64) %underflowLabel_) #16
  tail call void @_ZN6icu_7513UnicodeStringD1Ev(ptr noundef nonnull align 8 dereferenceable(64) %overflowLabel_) #16
  tail call void @_ZN6icu_7513UnicodeStringD1Ev(ptr noundef nonnull align 8 dereferenceable(64) %inflowLabel_) #16
  tail call void @_ZN6icu_757UObjectD2Ev(ptr noundef nonnull align 8 dereferenceable(8) %this) #16
  resume { ptr, i32 } %0
}